target datalayout = "e-m:e-p270:32:32-p271:32:32-p272:64:64-i64:64-i128:128-f80:128-n8:16:32:64-S128"
target triple = "x86_64-pc-linux-gnu"

%struct.slurm_select_ops_t = type { ptr, ptr, ptr, ptr, ptr, ptr, ptr, ptr, ptr, ptr, ptr, ptr, ptr, ptr, ptr, ptr, ptr, ptr, ptr, ptr, ptr, ptr, ptr, ptr, ptr, ptr, ptr, ptr, ptr, ptr, ptr, ptr }
%struct.timeval = type { i64, i64 }

@ops = internal global ptr null, align 8
@select_context_default = internal global i32 -1, align 4
@__func__.select_g_state_save = private unnamed_addr constant [20 x i8] c"select_g_state_save\00", align 1

; Function Attrs: nounwind uwtable
define dso_local i32 @select_g_state_save(ptr noundef %0) #0 {
  %2 = alloca ptr, align 8
  %3 = alloca %struct.timeval, align 8
  %4 = alloca %struct.timeval, align 8
  %5 = alloca [20 x i8], align 16
  %6 = alloca i64, align 8
  %7 = alloca i32, align 4
  store ptr %0, ptr %2, align 8
  call void @llvm.lifetime.start.p0(i64 16, ptr %3) #7
  call void @llvm.lifetime.start.p0(i64 16, ptr %4) #7
  call void @llvm.lifetime.start.p0(i64 20, ptr %5) #7
  call void @llvm.memset.p0.i64(ptr align 16 %5, i8 0, i64 20, i1 false)
  call void @llvm.lifetime.start.p0(i64 8, ptr %6) #7
  call void @llvm.lifetime.start.p0(i64 4, ptr %7) #7
  %8 = call i32 @gettimeofday(ptr noundef %3, ptr noundef null) #7
  %9 = load ptr, ptr @ops, align 8
  %10 = load i32, ptr @select_context_default, align 4
  %11 = sext i32 %10 to i64
  %12 = getelementptr inbounds %struct.slurm_select_ops_t, ptr %9, i64 %11
  %13 = getelementptr inbounds nuw %struct.slurm_select_ops_t, ptr %12, i32 0, i32 1
  %14 = load ptr, ptr %13, align 8
  %15 = load ptr, ptr %2, align 8
  %16 = call i32 %14(ptr noundef %15)
  store i32 %16, ptr %7, align 4
  br label %17

17:                                               ; preds = %1
  %18 = call i32 @gettimeofday(ptr noundef %4, ptr noundef null) #7
  %19 = getelementptr inbounds [20 x i8], ptr %5, i64 0, i64 0
  call void @slurm_diff_tv_str(ptr noundef %3, ptr noundef %4, ptr noundef %19, i32 noundef 20, ptr noundef @__func__.select_g_state_save, i64 noundef 0, ptr noundef %6)
  br label %20

20:                                               ; preds = %17
  br label %21

21:                                               ; preds = %20
  %22 = load i32, ptr %7, align 4
  call void @llvm.lifetime.end.p0(i64 4, ptr %7) #7
  call void @llvm.lifetime.end.p0(i64 8, ptr %6) #7
  call void @llvm.lifetime.end.p0(i64 20, ptr %5) #7
  call void @llvm.lifetime.end.p0(i64 16, ptr %4) #7
  call void @llvm.lifetime.end.p0(i64 16, ptr %3) #7
  ret i32 %22
}