; Function Attrs: nounwind uwtable
define dso_local i32 @select_g_state_save(ptr noundef %0) local_unnamed_addr #0 {
  %2 = alloca %struct.timeval, align 8
  %3 = alloca %struct.timeval, align 8
  %4 = alloca [20 x i8], align 16
  %5 = alloca i64, align 8
  call void @llvm.lifetime.start.p0(i64 16, ptr nonnull %2) #15
  call void @llvm.lifetime.start.p0(i64 16, ptr nonnull %3) #15
  call void @llvm.lifetime.start.p0(i64 20, ptr nonnull %4) #15
  call void @llvm.memset.p0.i64(ptr noundef nonnull align 16 dereferenceable(20) %4, i8 0, i64 20, i1 false)
  call void @llvm.lifetime.start.p0(i64 8, ptr nonnull %5) #15
  %6 = call i32 @gettimeofday(ptr noundef nonnull %2, ptr noundef null) #15
  %7 = load ptr, ptr @ops, align 8
  %8 = load i32, ptr @select_context_default, align 4
  %9 = sext i32 %8 to i64
  %10 = getelementptr inbounds %struct.slurm_select_ops_t, ptr %7, i64 %9, i32 1
  %11 = load ptr, ptr %10, align 8
  %12 = tail call i32 %11(ptr noundef %0) #15
  %13 = call i32 @gettimeofday(ptr noundef nonnull %3, ptr noundef null) #15
  call void @slurm_diff_tv_str(ptr noundef nonnull %2, ptr noundef nonnull %3, ptr noundef nonnull %4, i32 noundef 20, ptr noundef nonnull @__func__.select_g_state_save, i64 noundef 0, ptr noundef nonnull %5) #15
  call void @llvm.lifetime.end.p0(i64 8, ptr nonnull %5) #15
  call void @llvm.lifetime.end.p0(i64 20, ptr nonnull %4) #15
  call void @llvm.lifetime.end.p0(i64 16, ptr nonnull %3) #15
  call void @llvm.lifetime.end.p0(i64 16, ptr nonnull %2) #15
  ret i32 %12
}